target datalayout = "e-m:e-p270:32:32-p271:32:32-p272:64:64-i64:64-i128:128-f80:128-n8:16:32:64-S128"
target triple = "x86_64-pc-linux-gnu"

%struct.bignum_st = type { ptr, i32, i32, i32, i32 }

@hextable = internal constant [17 x i8] c"0123456789abcdef\00", align 16
@.str.3 = private unnamed_addr constant [2 x i8] c"-\00", align 1
@.str.4 = private unnamed_addr constant [2 x i8] c"0\00", align 1

; Function Attrs: nounwind uwtable
define hidden i32 @BN_print(ptr noundef %0, ptr noundef %1) #0 {
  %3 = alloca ptr, align 8
  %4 = alloca ptr, align 8
  %5 = alloca i32, align 4
  %6 = alloca i32, align 4
  %7 = alloca i32, align 4
  %8 = alloca i32, align 4
  %9 = alloca i32, align 4
  store ptr %0, ptr %3, align 8, !tbaa !44
  store ptr %1, ptr %4, align 8, !tbaa !13
  call void @llvm.lifetime.start.p0(i64 4, ptr %5) #7
  call void @llvm.lifetime.start.p0(i64 4, ptr %6) #7
  call void @llvm.lifetime.start.p0(i64 4, ptr %7) #7
  call void @llvm.lifetime.start.p0(i64 4, ptr %8) #7
  store i32 0, ptr %8, align 4, !tbaa !19
  call void @llvm.lifetime.start.p0(i64 4, ptr %9) #7
  store i32 0, ptr %9, align 4, !tbaa !19
  %10 = load ptr, ptr %4, align 8, !tbaa !13
  %11 = getelementptr inbounds nuw %struct.bignum_st, ptr %10, i32 0, i32 3
  %12 = load i32, ptr %11, align 8, !tbaa !20
  %13 = icmp ne i32 %12, 0
  br i1 %13, label %14, label %19

14:                                               ; preds = %2
  %15 = load ptr, ptr %3, align 8, !tbaa !44
  %16 = call i32 @BIO_write(ptr noundef %15, ptr noundef @.str.3, i32 noundef 1)
  %17 = icmp ne i32 %16, 1
  br i1 %17, label %18, label %19

18:                                               ; preds = %14
  br label %76

19:                                               ; preds = %14, %2
  %20 = load ptr, ptr %4, align 8, !tbaa !13
  %21 = call i32 @BN_is_zero(ptr noundef %20)
  %22 = icmp ne i32 %21, 0
  br i1 %22, label %23, label %28

23:                                               ; preds = %19
  %24 = load ptr, ptr %3, align 8, !tbaa !44
  %25 = call i32 @BIO_write(ptr noundef %24, ptr noundef @.str.4, i32 noundef 1)
  %26 = icmp ne i32 %25, 1
  br i1 %26, label %27, label %28

27:                                               ; preds = %23
  br label %76

28:                                               ; preds = %23, %19
  %29 = load ptr, ptr %4, align 8, !tbaa !13
  %30 = getelementptr inbounds nuw %struct.bignum_st, ptr %29, i32 0, i32 1
  %31 = load i32, ptr %30, align 8, !tbaa !15
  %32 = sub nsw i32 %31, 1
  store i32 %32, ptr %5, align 4, !tbaa !19
  br label %33

33:                                               ; preds = %72, %28
  %34 = load i32, ptr %5, align 4, !tbaa !19
  %35 = icmp sge i32 %34, 0
  br i1 %35, label %36, label %75

36:                                               ; preds = %33
  store i32 60, ptr %6, align 4, !tbaa !19
  br label %37

37:                                               ; preds = %68, %36
  %38 = load i32, ptr %6, align 4, !tbaa !19
  %39 = icmp sge i32 %38, 0
  br i1 %39, label %40, label %71

40:                                               ; preds = %37
  %41 = load ptr, ptr %4, align 8, !tbaa !13
  %42 = getelementptr inbounds nuw %struct.bignum_st, ptr %41, i32 0, i32 0
  %43 = load ptr, ptr %42, align 8, !tbaa !22
  %44 = load i32, ptr %5, align 4, !tbaa !19
  %45 = sext i32 %44 to i64
  %46 = getelementptr inbounds i64, ptr %43, i64 %45
  %47 = load i64, ptr %46, align 8, !tbaa !11
  %48 = load i32, ptr %6, align 4, !tbaa !19
  %49 = sext i32 %48 to i64
  %50 = lshr i64 %47, %49
  %51 = trunc i64 %50 to i32
  %52 = and i32 %51, 15
  store i32 %52, ptr %7, align 4, !tbaa !19
  %53 = load i32, ptr %8, align 4, !tbaa !19
  %54 = icmp ne i32 %53, 0
  br i1 %54, label %58, label %55

55:                                               ; preds = %40
  %56 = load i32, ptr %7, align 4, !tbaa !19
  %57 = icmp ne i32 %56, 0
  br i1 %57, label %58, label %67

58:                                               ; preds = %55, %40
  %59 = load ptr, ptr %3, align 8, !tbaa !44
  %60 = load i32, ptr %7, align 4, !tbaa !19
  %61 = sext i32 %60 to i64
  %62 = getelementptr inbounds [17 x i8], ptr @hextable, i64 0, i64 %61
  %63 = call i32 @BIO_write(ptr noundef %59, ptr noundef %62, i32 noundef 1)
  %64 = icmp ne i32 %63, 1
  br i1 %64, label %65, label %66

65:                                               ; preds = %58
  br label %76

66:                                               ; preds = %58
  store i32 1, ptr %8, align 4, !tbaa !19
  br label %67

67:                                               ; preds = %66, %55
  br label %68

68:                                               ; preds = %67
  %69 = load i32, ptr %6, align 4, !tbaa !19
  %70 = sub nsw i32 %69, 4
  store i32 %70, ptr %6, align 4, !tbaa !19
  br label %37, !llvm.loop !46

71:                                               ; preds = %37
  br label %72

72:                                               ; preds = %71
  %73 = load i32, ptr %5, align 4, !tbaa !19
  %74 = add nsw i32 %73, -1
  store i32 %74, ptr %5, align 4, !tbaa !19
  br label %33, !llvm.loop !47

75:                                               ; preds = %33
  store i32 1, ptr %9, align 4, !tbaa !19
  br label %76

76:                                               ; preds = %75, %65, %27, %18
  %77 = load i32, ptr %9, align 4, !tbaa !19
  call void @llvm.lifetime.end.p0(i64 4, ptr %9) #7
  call void @llvm.lifetime.end.p0(i64 4, ptr %8) #7
  call void @llvm.lifetime.end.p0(i64 4, ptr %7) #7
  call void @llvm.lifetime.end.p0(i64 4, ptr %6) #7
  call void @llvm.lifetime.end.p0(i64 4, ptr %5) #7
  ret i32 %77
}