; Function Attrs: nounwind uwtable
define hidden range(i32 0, 2) i32 @BN_print(ptr noundef %0, ptr noundef %1) local_unnamed_addr #0 {
  %3 = getelementptr inbounds nuw i8, ptr %1, i64 16
  %4 = load i32, ptr %3, align 8, !tbaa !13
  %.not = icmp eq i32 %4, 0
  br i1 %.not, label %7, label %5

5:                                                ; preds = %2
  %6 = tail call i32 @BIO_write(ptr noundef %0, ptr noundef nonnull @.str.3, i32 noundef 1) #9
  %.not20 = icmp eq i32 %6, 1
  br i1 %.not20, label %7, label %.loopexit24

7:                                                ; preds = %5, %2
  %8 = tail call i32 @BN_is_zero(ptr noundef nonnull %1) #9
  %.not21 = icmp eq i32 %8, 0
  br i1 %.not21, label %11, label %9

9:                                                ; preds = %7
  %10 = tail call i32 @BIO_write(ptr noundef %0, ptr noundef nonnull @.str.4, i32 noundef 1) #9
  %.not22 = icmp eq i32 %10, 1
  br i1 %.not22, label %11, label %.loopexit24

11:                                               ; preds = %9, %7
  %12 = getelementptr inbounds nuw i8, ptr %1, i64 8
  %13 = load i32, ptr %12, align 8, !tbaa !6
  %14 = icmp sgt i32 %13, 0
  br i1 %14, label %.preheader.preheader, label %.loopexit24

.preheader.preheader:                             ; preds = %11
  %15 = zext nneg i32 %13 to i64
  br label %.preheader

.loopexit:                                        ; preds = %28
  %16 = icmp sgt i64 %indvars.iv34, 1
  br i1 %16, label %.preheader, label %.loopexit24, !llvm.loop !38

.preheader:                                       ; preds = %.preheader.preheader, %.loopexit
  %indvars.iv34 = phi i64 [ %15, %.preheader.preheader ], [ %indvars.iv.next35, %.loopexit ]
  %.01730 = phi i32 [ 0, %.preheader.preheader ], [ %.2, %.loopexit ]
  %indvars.iv.next35 = add nsw i64 %indvars.iv34, -1
  br label %17

17:                                               ; preds = %.preheader, %28
  %indvars.iv = phi i64 [ 60, %.preheader ], [ %indvars.iv.next, %28 ]
  %.128 = phi i32 [ %.01730, %.preheader ], [ %.2, %28 ]
  %18 = load ptr, ptr %1, align 8, !tbaa !15
  %19 = getelementptr inbounds nuw i64, ptr %18, i64 %indvars.iv.next35
  %20 = load i64, ptr %19, align 8, !tbaa !16
  %21 = lshr i64 %20, %indvars.iv
  %22 = icmp ne i32 %.128, 0
  %23 = and i64 %21, 15
  %24 = icmp ne i64 %23, 0
  %or.cond = select i1 %22, i1 true, i1 %24
  br i1 %or.cond, label %25, label %28

25:                                               ; preds = %17
  %26 = getelementptr inbounds nuw [17 x i8], ptr @hextable, i64 0, i64 %23
  %27 = tail call i32 @BIO_write(ptr noundef %0, ptr noundef nonnull %26, i32 noundef 1) #9
  %.not23 = icmp eq i32 %27, 1
  br i1 %.not23, label %28, label %.loopexit24

28:                                               ; preds = %25, %17
  %.2 = phi i32 [ 0, %17 ], [ 1, %25 ]
  %indvars.iv.next = add nsw i64 %indvars.iv, -4
  %.not37 = icmp eq i64 %indvars.iv, 0
  br i1 %.not37, label %.loopexit, label %17, !llvm.loop !39

.loopexit24:                                      ; preds = %.loopexit, %25, %11, %9, %5
  %.0 = phi i32 [ 0, %5 ], [ 0, %9 ], [ 1, %11 ], [ 0, %25 ], [ 1, %.loopexit ]
  ret i32 %.0
}